target datalayout = "e-m:e-p270:32:32-p271:32:32-p272:64:64-i64:64-i128:128-f80:128-n8:16:32:64-S128"
target triple = "x86_64-unknown-linux-gnu"

%"class.QuantLib::UnitOfMeasure" = type { %"class.boost::shared_ptr" }
%"class.boost::shared_ptr" = type { ptr, %"class.boost::detail::shared_count" }
%"class.boost::detail::shared_count" = type { ptr }
%"class.QuantLib::Quantity" = type { %"class.QuantLib::CommodityType", %"class.QuantLib::UnitOfMeasure", double }
%"class.QuantLib::CommodityType" = type { %"class.boost::shared_ptr.0" }
%"class.boost::shared_ptr.0" = type { ptr, %"class.boost::detail::shared_count" }
%"class.std::locale" = type { ptr }
%"class.std::__cxx11::basic_string" = type { %"struct.std::__cxx11::basic_string<char>::_Alloc_hider", i64, %union.anon }
%"struct.std::__cxx11::basic_string<char>::_Alloc_hider" = type { ptr }
%union.anon = type { i64, [8 x i8] }
%"class.std::ios_base" = type { ptr, i64, i64, i32, i32, i32, ptr, %"struct.std::ios_base::_Words", [8 x %"struct.std::ios_base::_Words"], i32, ptr, %"class.std::locale" }
%"struct.std::ios_base::_Words" = type { ptr, i64 }
%"struct.QuantLib::CommodityType::Data" = type { %"class.std::__cxx11::basic_string", %"class.std::__cxx11::basic_string" }
%"struct.QuantLib::UnitOfMeasure::Data" = type <{ %"class.std::__cxx11::basic_string", %"class.std::__cxx11::basic_string", i32, [4 x i8], %"class.QuantLib::UnitOfMeasure", %"class.QuantLib::Rounding", [4 x i8] }>
%"class.QuantLib::Rounding" = type { i32, i32, i32 }

@.str.2 = private unnamed_addr constant [2 x i8] c" \00", align 1
@.str.4 = private unnamed_addr constant [8 x i8] c"px != 0\00", align 1
@__PRETTY_FUNCTION__._ZNK5boost10shared_ptrIN8QuantLib13UnitOfMeasure4DataEEptEv = private unnamed_addr constant [155 x i8] c"typename boost::detail::sp_member_access<T>::type boost::shared_ptr<QuantLib::UnitOfMeasure::Data>::operator->() const [T = QuantLib::UnitOfMeasure::Data]\00", align 1
@.str.5 = private unnamed_addr constant [102 x i8] c"generated/home/dtcxzyw/WorkSpace/SDK/vcpkg/installed/x64-linux/include/boost/smart_ptr/shared_ptr.hpp\00", align 1
@__PRETTY_FUNCTION__._ZNK5boost10shared_ptrIN8QuantLib13CommodityType4DataEEptEv = private unnamed_addr constant [155 x i8] c"typename boost::detail::sp_member_access<T>::type boost::shared_ptr<QuantLib::CommodityType::Data>::operator->() const [T = QuantLib::CommodityType::Data]\00", align 1

; Function Attrs: inlinehint mustprogress nounwind uwtable
define linkonce_odr noundef i32 @_ZStorSt12_Ios_IostateS_(i32 noundef %__a, i32 noundef %__b) #1 comdat {
entry:
  %__a.addr = alloca i32, align 4
  %__b.addr = alloca i32, align 4
  store i32 %__a, ptr %__a.addr, align 4, !tbaa !65
  store i32 %__b, ptr %__b.addr, align 4, !tbaa !65
  %0 = load i32, ptr %__a.addr, align 4, !tbaa !65
  %1 = load i32, ptr %__b.addr, align 4, !tbaa !65
  %or = or i32 %0, %1
  ret i32 %or
}

; Function Attrs: mustprogress nounwind uwtable
define available_externally noundef i32 @_ZNKSt9basic_iosIcSt11char_traitsIcEE7rdstateEv(ptr noundef nonnull align 8 dereferenceable(264) %this) #6 align 2 {
entry:
  %this.addr = alloca ptr, align 8
  store ptr %this, ptr %this.addr, align 8, !tbaa !3
  %this1 = load ptr, ptr %this.addr, align 8
  %_M_streambuf_state = getelementptr inbounds nuw %"class.std::ios_base", ptr %this1, i32 0, i32 5
  %0 = load i32, ptr %_M_streambuf_state, align 8, !tbaa !66
  ret i32 %0
}

; Function Attrs: noinline noreturn nounwind uwtable
define linkonce_odr hidden void @__clang_call_terminate(ptr noundef %0) #8 comdat {
  %2 = call ptr @__cxa_begin_catch(ptr %0) #2
  call void @_ZSt9terminatev() #17
  unreachable
}

; Function Attrs: mustprogress nounwind uwtable
define available_externally noundef ptr @_ZNKSt7__cxx1112basic_stringIcSt11char_traitsIcESaIcEE7_M_dataEv(ptr noundef nonnull align 8 dereferenceable(32) %this) #6 align 2 {
entry:
  %this.addr = alloca ptr, align 8
  store ptr %this, ptr %this.addr, align 8, !tbaa !3
  %this1 = load ptr, ptr %this.addr, align 8
  %_M_dataplus = getelementptr inbounds nuw %"class.std::__cxx11::basic_string", ptr %this1, i32 0, i32 0
  %_M_p = getelementptr inbounds nuw %"struct.std::__cxx11::basic_string<char>::_Alloc_hider", ptr %_M_dataplus, i32 0, i32 0
  %0 = load ptr, ptr %_M_p, align 8, !tbaa !28
  ret ptr %0
}

; Function Attrs: mustprogress uwtable
define linkonce_odr noundef ptr @_ZNK5boost10shared_ptrIN8QuantLib13UnitOfMeasure4DataEEptEv(ptr noundef nonnull align 8 dereferenceable(16) %this) #3 comdat align 2 {
entry:
  %this.addr = alloca ptr, align 8
  store ptr %this, ptr %this.addr, align 8, !tbaa !3
  %this1 = load ptr, ptr %this.addr, align 8
  %px = getelementptr inbounds nuw %"class.boost::shared_ptr", ptr %this1, i32 0, i32 0
  %0 = load ptr, ptr %px, align 8, !tbaa !29
  %cmp = icmp ne ptr %0, null
  %lnot = xor i1 %cmp, true
  %lnot2 = xor i1 %lnot, true
  %conv = zext i1 %lnot2 to i64
  %expval = call i64 @llvm.expect.i64(i64 %conv, i64 1)
  %tobool = icmp ne i64 %expval, 0
  br i1 %tobool, label %cond.true, label %cond.false

cond.true:                                        ; preds = %entry
  br label %cond.end

cond.false:                                       ; preds = %entry
  call void @_ZN5boost16assertion_failedEPKcS1_S1_l(ptr noundef @.str.4, ptr noundef @__PRETTY_FUNCTION__._ZNK5boost10shared_ptrIN8QuantLib13UnitOfMeasure4DataEEptEv, ptr noundef @.str.5, i64 noundef 784)
  br label %cond.end

cond.end:                                         ; preds = %cond.false, %cond.true
  %px3 = getelementptr inbounds nuw %"class.boost::shared_ptr", ptr %this1, i32 0, i32 0
  %1 = load ptr, ptr %px3, align 8, !tbaa !29
  ret ptr %1
}

; Function Attrs: mustprogress nounwind uwtable
define linkonce_odr noundef i64 @_ZNSt11char_traitsIcE6lengthEPKc(ptr noundef %__s) #6 comdat align 2 {
entry:
  %__s.addr = alloca ptr, align 8
  store ptr %__s, ptr %__s.addr, align 8, !tbaa !3
  %0 = load ptr, ptr %__s.addr, align 8, !tbaa !3
  %call = call i64 @strlen(ptr noundef %0) #2
  ret i64 %call
}

; Function Attrs: mustprogress uwtable
define available_externally void @_ZNSt9basic_iosIcSt11char_traitsIcEE8setstateESt12_Ios_Iostate(ptr noundef nonnull align 8 dereferenceable(264) %this, i32 noundef %__state) #3 align 2 {
entry:
  %this.addr = alloca ptr, align 8
  %__state.addr = alloca i32, align 4
  store ptr %this, ptr %this.addr, align 8, !tbaa !3
  store i32 %__state, ptr %__state.addr, align 4, !tbaa !65
  %this1 = load ptr, ptr %this.addr, align 8
  %call = call noundef i32 @_ZNKSt9basic_iosIcSt11char_traitsIcEE7rdstateEv(ptr noundef nonnull align 8 dereferenceable(264) %this1)
  %0 = load i32, ptr %__state.addr, align 4, !tbaa !65
  %call2 = call noundef i32 @_ZStorSt12_Ios_IostateS_(i32 noundef %call, i32 noundef %0)
  call void @_ZNSt9basic_iosIcSt11char_traitsIcEE5clearESt12_Ios_Iostate(ptr noundef nonnull align 8 dereferenceable(264) %this1, i32 noundef %call2)
  ret void
}

; Function Attrs: mustprogress nounwind uwtable
define available_externally noundef i64 @_ZNKSt7__cxx1112basic_stringIcSt11char_traitsIcESaIcEE4sizeEv(ptr noundef nonnull align 8 dereferenceable(32) %this) #6 align 2 {
entry:
  %this.addr = alloca ptr, align 8
  store ptr %this, ptr %this.addr, align 8, !tbaa !3
  %this1 = load ptr, ptr %this.addr, align 8
  %_M_string_length = getelementptr inbounds nuw %"class.std::__cxx11::basic_string", ptr %this1, i32 0, i32 1
  %0 = load i64, ptr %_M_string_length, align 8, !tbaa !25
  ret i64 %0
}

; Function Attrs: mustprogress nounwind uwtable
define available_externally noundef ptr @_ZNKSt7__cxx1112basic_stringIcSt11char_traitsIcESaIcEE4dataEv(ptr noundef nonnull align 8 dereferenceable(32) %this) #6 align 2 personality ptr @__gxx_personality_v0 {
entry:
  %this.addr = alloca ptr, align 8
  store ptr %this, ptr %this.addr, align 8, !tbaa !3
  %this1 = load ptr, ptr %this.addr, align 8
  %call = invoke noundef ptr @_ZNKSt7__cxx1112basic_stringIcSt11char_traitsIcESaIcEE7_M_dataEv(ptr noundef nonnull align 8 dereferenceable(32) %this1)
          to label %invoke.cont unwind label %terminate.lpad

invoke.cont:                                      ; preds = %entry
  ret ptr %call

terminate.lpad:                                   ; preds = %entry
  %0 = landingpad { ptr, i32 }
          catch ptr null
  %1 = extractvalue { ptr, i32 } %0, 0
  call void @__clang_call_terminate(ptr %1) #17
  unreachable
}

; Function Attrs: mustprogress uwtable
define linkonce_odr noundef ptr @_ZNK5boost10shared_ptrIN8QuantLib13CommodityType4DataEEptEv(ptr noundef nonnull align 8 dereferenceable(16) %this) #3 comdat align 2 {
entry:
  %this.addr = alloca ptr, align 8
  store ptr %this, ptr %this.addr, align 8, !tbaa !3
  %this1 = load ptr, ptr %this.addr, align 8
  %px = getelementptr inbounds nuw %"class.boost::shared_ptr.0", ptr %this1, i32 0, i32 0
  %0 = load ptr, ptr %px, align 8, !tbaa !30
  %cmp = icmp ne ptr %0, null
  %lnot = xor i1 %cmp, true
  %lnot2 = xor i1 %lnot, true
  %conv = zext i1 %lnot2 to i64
  %expval = call i64 @llvm.expect.i64(i64 %conv, i64 1)
  %tobool = icmp ne i64 %expval, 0
  br i1 %tobool, label %cond.true, label %cond.false

cond.true:                                        ; preds = %entry
  br label %cond.end

cond.false:                                       ; preds = %entry
  call void @_ZN5boost16assertion_failedEPKcS1_S1_l(ptr noundef @.str.4, ptr noundef @__PRETTY_FUNCTION__._ZNK5boost10shared_ptrIN8QuantLib13CommodityType4DataEEptEv, ptr noundef @.str.5, i64 noundef 784)
  br label %cond.end

cond.end:                                         ; preds = %cond.false, %cond.true
  %px3 = getelementptr inbounds nuw %"class.boost::shared_ptr.0", ptr %this1, i32 0, i32 0
  %1 = load ptr, ptr %px3, align 8, !tbaa !30
  ret ptr %1
}

; Function Attrs: inlinehint mustprogress uwtable
define linkonce_odr noundef nonnull align 8 dereferenceable(32) ptr @_ZNK8QuantLib13UnitOfMeasure4codeB5cxx11Ev(ptr noundef nonnull align 8 dereferenceable(16) %this) #4 comdat align 2 {
entry:
  %this.addr = alloca ptr, align 8
  store ptr %this, ptr %this.addr, align 8, !tbaa !3
  %this1 = load ptr, ptr %this.addr, align 8
  %data_ = getelementptr inbounds nuw %"class.QuantLib::UnitOfMeasure", ptr %this1, i32 0, i32 0
  %call = call noundef ptr @_ZNK5boost10shared_ptrIN8QuantLib13UnitOfMeasure4DataEEptEv(ptr noundef nonnull align 8 dereferenceable(16) %data_)
  %code = getelementptr inbounds nuw %"struct.QuantLib::UnitOfMeasure::Data", ptr %call, i32 0, i32 1
  ret ptr %code
}

; Function Attrs: mustprogress uwtable
define available_externally noundef nonnull align 8 dereferenceable(8) ptr @_ZNSolsEd(ptr noundef nonnull align 8 dereferenceable(8) %this, double noundef %__f) #3 align 2 {
entry:
  %this.addr = alloca ptr, align 8
  %__f.addr = alloca double, align 8
  store ptr %this, ptr %this.addr, align 8, !tbaa !3
  store double %__f, ptr %__f.addr, align 8, !tbaa !21
  %this1 = load ptr, ptr %this.addr, align 8
  %0 = load double, ptr %__f.addr, align 8, !tbaa !21
  %call = call noundef nonnull align 8 dereferenceable(8) ptr @_ZNSo9_M_insertIdEERSoT_(ptr noundef nonnull align 8 dereferenceable(8) %this1, double noundef %0)
  ret ptr %call
}

; Function Attrs: inlinehint mustprogress uwtable
define available_externally noundef nonnull align 8 dereferenceable(8) ptr @_ZStlsISt11char_traitsIcEERSt13basic_ostreamIcT_ES5_PKc(ptr noundef nonnull align 8 dereferenceable(8) %__out, ptr noundef %__s) #4 {
entry:
  %__out.addr = alloca ptr, align 8
  %__s.addr = alloca ptr, align 8
  store ptr %__out, ptr %__out.addr, align 8, !tbaa !3
  store ptr %__s, ptr %__s.addr, align 8, !tbaa !3
  %0 = load ptr, ptr %__s.addr, align 8, !tbaa !3
  %tobool = icmp ne ptr %0, null
  br i1 %tobool, label %if.else, label %if.then

if.then:                                          ; preds = %entry
  %1 = load ptr, ptr %__out.addr, align 8, !tbaa !3
  %vtable = load ptr, ptr %1, align 8, !tbaa !17
  %vbase.offset.ptr = getelementptr i8, ptr %vtable, i64 -24
  %vbase.offset = load i64, ptr %vbase.offset.ptr, align 8
  %add.ptr = getelementptr inbounds i8, ptr %1, i64 %vbase.offset
  call void @_ZNSt9basic_iosIcSt11char_traitsIcEE8setstateESt12_Ios_Iostate(ptr noundef nonnull align 8 dereferenceable(264) %add.ptr, i32 noundef 1)
  br label %if.end

if.else:                                          ; preds = %entry
  %2 = load ptr, ptr %__out.addr, align 8, !tbaa !3
  %3 = load ptr, ptr %__s.addr, align 8, !tbaa !3
  %4 = load ptr, ptr %__s.addr, align 8, !tbaa !3
  %call = call noundef i64 @_ZNSt11char_traitsIcE6lengthEPKc(ptr noundef %4)
  %call1 = call noundef nonnull align 8 dereferenceable(8) ptr @_ZSt16__ostream_insertIcSt11char_traitsIcEERSt13basic_ostreamIT_T0_ES6_PKS3_l(ptr noundef nonnull align 8 dereferenceable(8) %2, ptr noundef %3, i64 noundef %call)
  br label %if.end

if.end:                                           ; preds = %if.else, %if.then
  %5 = load ptr, ptr %__out.addr, align 8, !tbaa !3
  ret ptr %5
}

; Function Attrs: inlinehint mustprogress uwtable
define available_externally noundef nonnull align 8 dereferenceable(8) ptr @_ZStlsIcSt11char_traitsIcESaIcEERSt13basic_ostreamIT_T0_ES7_RKNSt7__cxx1112basic_stringIS4_S5_T1_EE(ptr noundef nonnull align 8 dereferenceable(8) %__os, ptr noundef nonnull align 8 dereferenceable(32) %__str) #4 {
entry:
  %__os.addr = alloca ptr, align 8
  %__str.addr = alloca ptr, align 8
  store ptr %__os, ptr %__os.addr, align 8, !tbaa !3
  store ptr %__str, ptr %__str.addr, align 8, !tbaa !3
  %0 = load ptr, ptr %__os.addr, align 8, !tbaa !3
  %1 = load ptr, ptr %__str.addr, align 8, !tbaa !3
  %call = call noundef ptr @_ZNKSt7__cxx1112basic_stringIcSt11char_traitsIcESaIcEE4dataEv(ptr noundef nonnull align 8 dereferenceable(32) %1) #2
  %2 = load ptr, ptr %__str.addr, align 8, !tbaa !3
  %call1 = call noundef i64 @_ZNKSt7__cxx1112basic_stringIcSt11char_traitsIcESaIcEE4sizeEv(ptr noundef nonnull align 8 dereferenceable(32) %2) #2
  %call2 = call noundef nonnull align 8 dereferenceable(8) ptr @_ZSt16__ostream_insertIcSt11char_traitsIcEERSt13basic_ostreamIT_T0_ES6_PKS3_l(ptr noundef nonnull align 8 dereferenceable(8) %0, ptr noundef %call, i64 noundef %call1)
  ret ptr %call2
}

; Function Attrs: inlinehint mustprogress uwtable
define linkonce_odr noundef nonnull align 8 dereferenceable(32) ptr @_ZNK8QuantLib13CommodityType4codeB5cxx11Ev(ptr noundef nonnull align 8 dereferenceable(16) %this) #4 comdat align 2 {
entry:
  %this.addr = alloca ptr, align 8
  store ptr %this, ptr %this.addr, align 8, !tbaa !3
  %this1 = load ptr, ptr %this.addr, align 8
  %data_ = getelementptr inbounds nuw %"class.QuantLib::CommodityType", ptr %this1, i32 0, i32 0
  %call = call noundef ptr @_ZNK5boost10shared_ptrIN8QuantLib13CommodityType4DataEEptEv(ptr noundef nonnull align 8 dereferenceable(16) %data_)
  %code = getelementptr inbounds nuw %"struct.QuantLib::CommodityType::Data", ptr %call, i32 0, i32 1
  ret ptr %code
}

; Function Attrs: mustprogress uwtable
define noundef nonnull align 8 dereferenceable(8) ptr @_ZN8QuantLiblsERSoRKNS_8QuantityE(ptr noundef nonnull align 8 dereferenceable(8) %out, ptr noundef nonnull align 8 dereferenceable(40) %quantity) #3 {
entry:
  %out.addr = alloca ptr, align 8
  %quantity.addr = alloca ptr, align 8
  store ptr %out, ptr %out.addr, align 8, !tbaa !3
  store ptr %quantity, ptr %quantity.addr, align 8, !tbaa !3
  %0 = load ptr, ptr %out.addr, align 8, !tbaa !3
  %1 = load ptr, ptr %quantity.addr, align 8, !tbaa !3
  %commodityType_ = getelementptr inbounds nuw %"class.QuantLib::Quantity", ptr %1, i32 0, i32 0
  %call = call noundef nonnull align 8 dereferenceable(32) ptr @_ZNK8QuantLib13CommodityType4codeB5cxx11Ev(ptr noundef nonnull align 8 dereferenceable(16) %commodityType_)
  %call1 = call noundef nonnull align 8 dereferenceable(8) ptr @_ZStlsIcSt11char_traitsIcESaIcEERSt13basic_ostreamIT_T0_ES7_RKNSt7__cxx1112basic_stringIS4_S5_T1_EE(ptr noundef nonnull align 8 dereferenceable(8) %0, ptr noundef nonnull align 8 dereferenceable(32) %call)
  %call2 = call noundef nonnull align 8 dereferenceable(8) ptr @_ZStlsISt11char_traitsIcEERSt13basic_ostreamIcT_ES5_PKc(ptr noundef nonnull align 8 dereferenceable(8) %call1, ptr noundef @.str.2)
  %2 = load ptr, ptr %quantity.addr, align 8, !tbaa !3
  %amount_ = getelementptr inbounds nuw %"class.QuantLib::Quantity", ptr %2, i32 0, i32 2
  %3 = load double, ptr %amount_, align 8, !tbaa !7
  %call3 = call noundef nonnull align 8 dereferenceable(8) ptr @_ZNSolsEd(ptr noundef nonnull align 8 dereferenceable(8) %call2, double noundef %3)
  %call4 = call noundef nonnull align 8 dereferenceable(8) ptr @_ZStlsISt11char_traitsIcEERSt13basic_ostreamIcT_ES5_PKc(ptr noundef nonnull align 8 dereferenceable(8) %call3, ptr noundef @.str.2)
  %4 = load ptr, ptr %quantity.addr, align 8, !tbaa !3
  %unitOfMeasure_ = getelementptr inbounds nuw %"class.QuantLib::Quantity", ptr %4, i32 0, i32 1
  %call5 = call noundef nonnull align 8 dereferenceable(32) ptr @_ZNK8QuantLib13UnitOfMeasure4codeB5cxx11Ev(ptr noundef nonnull align 8 dereferenceable(16) %unitOfMeasure_)
  %call6 = call noundef nonnull align 8 dereferenceable(8) ptr @_ZStlsIcSt11char_traitsIcESaIcEERSt13basic_ostreamIT_T0_ES7_RKNSt7__cxx1112basic_stringIS4_S5_T1_EE(ptr noundef nonnull align 8 dereferenceable(8) %call4, ptr noundef nonnull align 8 dereferenceable(32) %call5)
  ret ptr %call6
}