; Function Attrs: mustprogress uwtable
define noundef nonnull align 8 dereferenceable(8) ptr @_ZN8QuantLiblsERSoRKNS_8QuantityE(ptr noundef nonnull align 8 dereferenceable(8) %out, ptr nocapture noundef nonnull readonly align 8 dereferenceable(40) %quantity) local_unnamed_addr #2 personality ptr @__gxx_personality_v0 {
entry:
  %0 = load ptr, ptr %quantity, align 8, !tbaa !26
  %cmp.not.i.i = icmp eq ptr %0, null
  br i1 %cmp.not.i.i, label %cond.false.i.i, label %_ZNK8QuantLib13CommodityType4codeB5cxx11Ev.exit, !prof !12

cond.false.i.i:                                   ; preds = %entry
  tail call void @_ZN5boost16assertion_failedEPKcS1_S1_l(ptr noundef nonnull @.str.4, ptr noundef nonnull @__PRETTY_FUNCTION__._ZNK5boost10shared_ptrIN8QuantLib13CommodityType4DataEEptEv, ptr noundef nonnull @.str.5, i64 noundef 784)
  %.pre.i.i = load ptr, ptr %quantity, align 8, !tbaa !26
  br label %_ZNK8QuantLib13CommodityType4codeB5cxx11Ev.exit

_ZNK8QuantLib13CommodityType4codeB5cxx11Ev.exit:  ; preds = %entry, %cond.false.i.i
  %1 = phi ptr [ %0, %entry ], [ %.pre.i.i, %cond.false.i.i ]
  %code.i = getelementptr inbounds nuw i8, ptr %1, i64 32
  %2 = load ptr, ptr %code.i, align 8, !tbaa !17
  %_M_string_length.i.i = getelementptr inbounds nuw i8, ptr %1, i64 40
  %3 = load i64, ptr %_M_string_length.i.i, align 8, !tbaa !13
  %call2.i = tail call noundef nonnull align 8 dereferenceable(8) ptr @_ZSt16__ostream_insertIcSt11char_traitsIcEERSt13basic_ostreamIT_T0_ES6_PKS3_l(ptr noundef nonnull align 8 dereferenceable(8) %out, ptr noundef %2, i64 noundef %3)
  %call1.i = tail call noundef nonnull align 8 dereferenceable(8) ptr @_ZSt16__ostream_insertIcSt11char_traitsIcEERSt13basic_ostreamIT_T0_ES6_PKS3_l(ptr noundef nonnull align 8 dereferenceable(8) %call2.i, ptr noundef nonnull @.str.2, i64 noundef 1)
  %amount_ = getelementptr inbounds nuw i8, ptr %quantity, i64 32
  %4 = load double, ptr %amount_, align 8, !tbaa !18
  %call.i = tail call noundef nonnull align 8 dereferenceable(8) ptr @_ZNSo9_M_insertIdEERSoT_(ptr noundef nonnull align 8 dereferenceable(8) %call2.i, double noundef %4)
  %call1.i4 = tail call noundef nonnull align 8 dereferenceable(8) ptr @_ZSt16__ostream_insertIcSt11char_traitsIcEERSt13basic_ostreamIT_T0_ES6_PKS3_l(ptr noundef nonnull align 8 dereferenceable(8) %call.i, ptr noundef nonnull @.str.2, i64 noundef 1)
  %unitOfMeasure_ = getelementptr inbounds nuw i8, ptr %quantity, i64 16
  %5 = load ptr, ptr %unitOfMeasure_, align 8, !tbaa !10
  %cmp.not.i.i5 = icmp eq ptr %5, null
  br i1 %cmp.not.i.i5, label %cond.false.i.i7, label %_ZNK8QuantLib13UnitOfMeasure4codeB5cxx11Ev.exit, !prof !12

cond.false.i.i7:                                  ; preds = %_ZNK8QuantLib13CommodityType4codeB5cxx11Ev.exit
  tail call void @_ZN5boost16assertion_failedEPKcS1_S1_l(ptr noundef nonnull @.str.4, ptr noundef nonnull @__PRETTY_FUNCTION__._ZNK5boost10shared_ptrIN8QuantLib13UnitOfMeasure4DataEEptEv, ptr noundef nonnull @.str.5, i64 noundef 784)
  %.pre.i.i8 = load ptr, ptr %unitOfMeasure_, align 8, !tbaa !10
  br label %_ZNK8QuantLib13UnitOfMeasure4codeB5cxx11Ev.exit

_ZNK8QuantLib13UnitOfMeasure4codeB5cxx11Ev.exit:  ; preds = %_ZNK8QuantLib13CommodityType4codeB5cxx11Ev.exit, %cond.false.i.i7
  %6 = phi ptr [ %5, %_ZNK8QuantLib13CommodityType4codeB5cxx11Ev.exit ], [ %.pre.i.i8, %cond.false.i.i7 ]
  %code.i6 = getelementptr inbounds nuw i8, ptr %6, i64 32
  %7 = load ptr, ptr %code.i6, align 8, !tbaa !17
  %_M_string_length.i.i9 = getelementptr inbounds nuw i8, ptr %6, i64 40
  %8 = load i64, ptr %_M_string_length.i.i9, align 8, !tbaa !13
  %call2.i10 = tail call noundef nonnull align 8 dereferenceable(8) ptr @_ZSt16__ostream_insertIcSt11char_traitsIcEERSt13basic_ostreamIT_T0_ES6_PKS3_l(ptr noundef nonnull align 8 dereferenceable(8) %call.i, ptr noundef %7, i64 noundef %8)
  ret ptr %call2.i10
}